(dp1
S'rangeid'
p2
I114
sS'prevwidth'
p3
I567
sS'range_interval'
p4
(dp5
I112
I01
ssS'interval'
p6
I00
sS'range'
p7
(dp8
I32
(lp9
I240
aI307
aI393
aI721
aI634
aI786
aI712
aI235
aI310
aI309
aI345
aI421
aI232
aI418
aI225
aI698
aI614
aI494
aI564
aI558
aI571
aI554
aI607
aI561
aI604
aI589
aI247
aI259
aI515
aI436
aI515
aI486
aI845
aI672
aI680
aI686
aI716
aI601
aI574
aI725
aI745
aI286
aI491
aI669
aI584
aI865
aI763
aI756
aI623
aI755
aI665
aI613
aI619
aI750
aI676
aI1053
aI646
aI660
aI627
aI316
aI637
aI316
aI585
aI475
aI255
aI574
aI634
aI564
aI645
aI599
aI370
aI634
aI604
aI255
aI261
aI558
aI317
aI931
aI604
aI606
asI112
(lp10
I634
aI634
asI114
(lp11
I387
aI497
aI384
aI618
aI549
aI839
aI531
aI550
aI493
aI317
aI272
aI317
aI567
assS'prevcid'
p12
I126
s.